; Function Attrs: mustprogress uwtable
define noundef zeroext i1 @_ZNK32pxrInternal_v0_24__pxrReserved__8Usd_Clip22HasAuthoredTimeSamplesERKNS_7SdfPathE(ptr noundef nonnull align 8 dereferenceable(208) %0, ptr noundef nonnull align 4 dereferenceable(8) %1) local_unnamed_addr #0 align 2 personality ptr @__gxx_personality_v0 {
  %3 = alloca %"class.pxrInternal_v0_24__pxrReserved__::TfCallContext", align 8
  %4 = alloca %"class.pxrInternal_v0_24__pxrReserved__::TfRefPtr.3", align 8
  %5 = alloca %"class.pxrInternal_v0_24__pxrReserved__::SdfPath", align 4
  call void @_ZNK32pxrInternal_v0_24__pxrReserved__8Usd_Clip16_GetLayerForClipEv(ptr dead_on_unwind nonnull writable sret(%"class.pxrInternal_v0_24__pxrReserved__::TfRefPtr.3") align 8 %4, ptr noundef nonnull align 8 dereferenceable(208) %0)
  call void @llvm.lifetime.start.p0(i64 40, ptr nonnull %3)
  %6 = load ptr, ptr %4, align 8
  %.not.i = icmp eq ptr %6, null
  br i1 %.not.i, label %7, label %12

7:                                                ; preds = %2
  store ptr @.str.18, ptr %3, align 8
  %8 = getelementptr inbounds nuw i8, ptr %3, i64 8
  store ptr @__func__._ZNK32pxrInternal_v0_24__pxrReserved__8TfRefPtrINS_8SdfLayerEEptEv, ptr %8, align 8
  %9 = getelementptr inbounds nuw i8, ptr %3, i64 16
  store i64 936, ptr %9, align 8
  %10 = getelementptr inbounds nuw i8, ptr %3, i64 24
  store ptr @__PRETTY_FUNCTION__._ZNK32pxrInternal_v0_24__pxrReserved__8TfRefPtrINS_8SdfLayerEEptEv, ptr %10, align 8
  %11 = getelementptr inbounds nuw i8, ptr %3, i64 32
  store i8 0, ptr %11, align 8
  invoke void @_ZN32pxrInternal_v0_24__pxrReserved__40Tf_PostNullSmartPtrDereferenceFatalErrorERKNS_13TfCallContextEPKc(ptr noundef nonnull align 8 dereferenceable(33) %3, ptr noundef nonnull @_ZTSN32pxrInternal_v0_24__pxrReserved__8TfRefPtrINS_8SdfLayerEEE) #17
          to label %.noexc unwind label %60

.noexc:                                           ; preds = %7
  unreachable

12:                                               ; preds = %2
  call void @llvm.lifetime.end.p0(i64 40, ptr nonnull %3)
  %13 = getelementptr inbounds nuw i8, ptr %0, i64 16
  %14 = getelementptr inbounds nuw i8, ptr %0, i64 104
  invoke void @_ZNK32pxrInternal_v0_24__pxrReserved__7SdfPath13ReplacePrefixERKS0_S2_b(ptr dead_on_unwind nonnull writable sret(%"class.pxrInternal_v0_24__pxrReserved__::SdfPath") align 4 %5, ptr noundef nonnull align 4 dereferenceable(8) %1, ptr noundef nonnull align 4 dereferenceable(8) %13, ptr noundef nonnull align 4 dereferenceable(8) %14, i1 noundef zeroext true)
          to label %_ZNK32pxrInternal_v0_24__pxrReserved__8Usd_Clip20_TranslatePathToClipERKNS_7SdfPathE.exit unwind label %60

_ZNK32pxrInternal_v0_24__pxrReserved__8Usd_Clip20_TranslatePathToClipERKNS_7SdfPathE.exit: ; preds = %12
  %15 = invoke noundef i64 @_ZNK32pxrInternal_v0_24__pxrReserved__8SdfLayer24GetNumTimeSamplesForPathERKNS_7SdfPathE(ptr noundef nonnull align 8 dereferenceable(557) %6, ptr noundef nonnull align 4 dereferenceable(8) %5)
          to label %16 unwind label %62

16:                                               ; preds = %_ZNK32pxrInternal_v0_24__pxrReserved__8Usd_Clip20_TranslatePathToClipERKNS_7SdfPathE.exit
  %17 = load i32, ptr %5, align 4
  %.not.i.i = icmp eq i32 %17, 0
  br i1 %.not.i.i, label %_ZN32pxrInternal_v0_24__pxrReserved__7SdfPathD2Ev.exit, label %18

18:                                               ; preds = %16
  %19 = and i32 %17, 255
  %20 = lshr i32 %17, 8
  %21 = zext nneg i32 %19 to i64
  %22 = getelementptr inbounds nuw [257 x ptr], ptr @_ZN32pxrInternal_v0_24__pxrReserved__8Sdf_PoolINS_15Sdf_PathPrimTagELj24ELj8ELj16384EE13_regionStartsE, i64 0, i64 %21
  %23 = load ptr, ptr %22, align 8
  %24 = mul nuw nsw i32 %20, 24
  %25 = zext nneg i32 %24 to i64
  %26 = getelementptr inbounds nuw i8, ptr %23, i64 %25
  %27 = getelementptr inbounds nuw i8, ptr %26, i64 8
  %28 = atomicrmw sub ptr %27, i32 1 seq_cst, align 4
  %29 = and i32 %28, 2147483647
  %30 = icmp eq i32 %29, 1
  br i1 %30, label %31, label %_ZN32pxrInternal_v0_24__pxrReserved__7SdfPathD2Ev.exit

31:                                               ; preds = %18
  invoke void @_ZNK32pxrInternal_v0_24__pxrReserved__12Sdf_PathNode8_DestroyEv(ptr noundef nonnull align 8 dereferenceable(16) %26)
          to label %_ZN32pxrInternal_v0_24__pxrReserved__7SdfPathD2Ev.exit unwind label %32

32:                                               ; preds = %31
  %33 = landingpad { ptr, i32 }
          catch ptr null
  %34 = extractvalue { ptr, i32 } %33, 0
  call void @__clang_call_terminate(ptr %34) #19
  unreachable

_ZN32pxrInternal_v0_24__pxrReserved__7SdfPathD2Ev.exit: ; preds = %16, %18, %31
  %35 = load ptr, ptr %4, align 8
  %.not.i.i.i = icmp eq ptr %35, null
  br i1 %.not.i.i.i, label %_ZN32pxrInternal_v0_24__pxrReserved__8TfRefPtrINS_8SdfLayerEED2Ev.exit, label %36

36:                                               ; preds = %_ZN32pxrInternal_v0_24__pxrReserved__7SdfPathD2Ev.exit
  %37 = getelementptr inbounds nuw i8, ptr %35, i64 8
  %38 = load atomic i32, ptr %37 monotonic, align 4
  %39 = icmp slt i32 %38, 0
  br i1 %39, label %40, label %_ZN32pxrInternal_v0_24__pxrReserved__30Tf_RefPtr_UniqueChangedCounter9RemoveRefEPKNS_9TfRefBaseE.exit.i.i

40:                                               ; preds = %36
  %.not68.i.i.i = icmp eq i32 %38, -2
  br i1 %.not68.i.i.i, label %48, label %41

41:                                               ; preds = %40
  %42 = add nsw i32 %38, 1
  %43 = cmpxchg weak ptr %37, i32 %38, i32 %42 release monotonic, align 4
  %44 = extractvalue { i32, i1 } %43, 1
  %45 = extractvalue { i32, i1 } %43, 0
  br i1 %44, label %46, label %48

46:                                               ; preds = %41
  %47 = icmp eq i32 %38, -1
  br i1 %47, label %52, label %_ZN32pxrInternal_v0_24__pxrReserved__8TfRefPtrINS_8SdfLayerEED2Ev.exit

48:                                               ; preds = %41, %40
  %.067.i.i.i = phi i32 [ %45, %41 ], [ -2, %40 ]
  %49 = invoke noundef zeroext i1 @_ZN32pxrInternal_v0_24__pxrReserved__30Tf_RefPtr_UniqueChangedCounter21_RemoveRefMaybeLockedEPKNS_9TfRefBaseEi(ptr noundef nonnull %35, i32 noundef %.067.i.i.i)
          to label %.noexc.i unwind label %56

.noexc.i:                                         ; preds = %48
  br i1 %49, label %52, label %_ZN32pxrInternal_v0_24__pxrReserved__8TfRefPtrINS_8SdfLayerEED2Ev.exit

_ZN32pxrInternal_v0_24__pxrReserved__30Tf_RefPtr_UniqueChangedCounter9RemoveRefEPKNS_9TfRefBaseE.exit.i.i: ; preds = %36
  %50 = atomicrmw sub ptr %37, i32 1 release, align 4
  %51 = icmp eq i32 %50, 1
  br i1 %51, label %52, label %_ZN32pxrInternal_v0_24__pxrReserved__8TfRefPtrINS_8SdfLayerEED2Ev.exit

52:                                               ; preds = %_ZN32pxrInternal_v0_24__pxrReserved__30Tf_RefPtr_UniqueChangedCounter9RemoveRefEPKNS_9TfRefBaseE.exit.i.i, %.noexc.i, %46
  %53 = load ptr, ptr %35, align 8
  %54 = getelementptr inbounds nuw i8, ptr %53, i64 8
  %55 = load ptr, ptr %54, align 8
  call void %55(ptr noundef nonnull align 8 dereferenceable(12) %35) #18
  br label %_ZN32pxrInternal_v0_24__pxrReserved__8TfRefPtrINS_8SdfLayerEED2Ev.exit

56:                                               ; preds = %48
  %57 = landingpad { ptr, i32 }
          catch ptr null
  %58 = extractvalue { ptr, i32 } %57, 0
  call void @__clang_call_terminate(ptr %58) #19
  unreachable

_ZN32pxrInternal_v0_24__pxrReserved__8TfRefPtrINS_8SdfLayerEED2Ev.exit: ; preds = %_ZN32pxrInternal_v0_24__pxrReserved__7SdfPathD2Ev.exit, %46, %.noexc.i, %_ZN32pxrInternal_v0_24__pxrReserved__30Tf_RefPtr_UniqueChangedCounter9RemoveRefEPKNS_9TfRefBaseE.exit.i.i, %52
  %59 = icmp ne i64 %15, 0
  ret i1 %59

60:                                               ; preds = %12, %7
  %61 = landingpad { ptr, i32 }
          cleanup
  br label %64

62:                                               ; preds = %_ZNK32pxrInternal_v0_24__pxrReserved__8Usd_Clip20_TranslatePathToClipERKNS_7SdfPathE.exit
  %63 = landingpad { ptr, i32 }
          cleanup
  call void @_ZN32pxrInternal_v0_24__pxrReserved__7SdfPathD2Ev(ptr noundef nonnull align 4 dereferenceable(8) %5) #18
  br label %64

64:                                               ; preds = %62, %60
  %.pn = phi { ptr, i32 } [ %63, %62 ], [ %61, %60 ]
  call void @_ZN32pxrInternal_v0_24__pxrReserved__8TfRefPtrINS_8SdfLayerEED2Ev(ptr noundef nonnull align 8 dereferenceable(8) %4) #18
  resume { ptr, i32 } %.pn
}